; ModuleID = '38/124.c'
source_filename = "38/124.c"
target datalayout = "e-m:e-p270:32:32-p271:32:32-p272:64:64-i64:64-f80:128-n8:16:32:64-S128"
target triple = "x86_64-pc-linux-gnu"

@.str = private unnamed_addr constant [4 x i8] c"%lf\00", align 1
@.str.1 = private unnamed_addr constant [7 x i8] c"%.5lf\0A\00", align 1
@.str.2 = private unnamed_addr constant [3 x i8] c"%d\00", align 1

; Function Attrs: noinline nounwind uwtable
define dso_local void @f(double* %0, double %1) #0 {
  %3 = alloca double*, align 8
  %4 = alloca double, align 8
  %5 = alloca i32, align 4
  %6 = alloca double, align 8
  %7 = alloca double, align 8
  store double* %0, double** %3, align 8
  store double %1, double* %4, align 8
  store double 0.000000e+00, double* %6, align 8
  store double 0.000000e+00, double* %7, align 8
  store i32 0, i32* %5, align 4
  br label %8

8:                                                ; preds = %27, %2
  %9 = load i32, i32* %5, align 4
  %10 = sitofp i32 %9 to double
  %11 = load double, double* %4, align 8
  %12 = fsub double %11, 1.000000e+00
  %13 = fcmp ole double %10, %12
  br i1 %13, label %14, label %30

14:                                               ; preds = %8
  %15 = load double*, double** %3, align 8
  %16 = load i32, i32* %5, align 4
  %17 = sext i32 %16 to i64
  %18 = getelementptr inbounds double, double* %15, i64 %17
  %19 = call i32 (i8*, ...) @__isoc99_scanf(i8* getelementptr inbounds ([4 x i8], [4 x i8]* @.str, i64 0, i64 0), double* %18)
  %20 = load double, double* %6, align 8
  %21 = load double*, double** %3, align 8
  %22 = load i32, i32* %5, align 4
  %23 = sext i32 %22 to i64
  %24 = getelementptr inbounds double, double* %21, i64 %23
  %25 = load double, double* %24, align 8
  %26 = fadd double %20, %25
  store double %26, double* %6, align 8
  br label %27

27:                                               ; preds = %14
  %28 = load i32, i32* %5, align 4
  %29 = add nsw i32 %28, 1
  store i32 %29, i32* %5, align 4
  br label %8

30:                                               ; preds = %8
  %31 = load double, double* %6, align 8
  %32 = load double, double* %4, align 8
  %33 = fdiv double %31, %32
  store double %33, double* %6, align 8
  store i32 0, i32* %5, align 4
  br label %34

34:                                               ; preds = %51, %30
  %35 = load i32, i32* %5, align 4
  %36 = sitofp i32 %35 to double
  %37 = load double, double* %4, align 8
  %38 = fsub double %37, 1.000000e+00
  %39 = fcmp ole double %36, %38
  br i1 %39, label %40, label %54

40:                                               ; preds = %34
  %41 = load double, double* %7, align 8
  %42 = load double*, double** %3, align 8
  %43 = load i32, i32* %5, align 4
  %44 = sext i32 %43 to i64
  %45 = getelementptr inbounds double, double* %42, i64 %44
  %46 = load double, double* %45, align 8
  %47 = load double, double* %6, align 8
  %48 = fsub double %46, %47
  %49 = call double @pow(double %48, double 2.000000e+00) #4
  %50 = fadd double %41, %49
  store double %50, double* %7, align 8
  br label %51

51:                                               ; preds = %40
  %52 = load i32, i32* %5, align 4
  %53 = add nsw i32 %52, 1
  store i32 %53, i32* %5, align 4
  br label %34

54:                                               ; preds = %34
  %55 = load double, double* %7, align 8
  %56 = load double, double* %4, align 8
  %57 = fdiv double %55, %56
  %58 = call double @sqrt(double %57) #4
  store double %58, double* %7, align 8
  %59 = load double, double* %7, align 8
  %60 = call i32 (i8*, ...) @printf(i8* getelementptr inbounds ([7 x i8], [7 x i8]* @.str.1, i64 0, i64 0), double %59)
  ret void
}

declare dso_local i32 @__isoc99_scanf(i8*, ...) #1

; Function Attrs: nounwind
declare dso_local double @pow(double, double) #2

; Function Attrs: nounwind
declare dso_local double @sqrt(double) #2

declare dso_local i32 @printf(i8*, ...) #1

; Function Attrs: noinline nounwind uwtable
define dso_local i32 @main() #0 {
  %1 = alloca i32, align 4
  %2 = alloca i32, align 4
  %3 = alloca i32, align 4
  %4 = alloca [102 x double], align 16
  %5 = alloca double*, align 8
  %6 = alloca double, align 8
  store i32 0, i32* %1, align 4
  %7 = call i32 (i8*, ...) @__isoc99_scanf(i8* getelementptr inbounds ([3 x i8], [3 x i8]* @.str.2, i64 0, i64 0), i32* %2)
  store i32 1, i32* %3, align 4
  br label %8

8:                                                ; preds = %18, %0
  %9 = load i32, i32* %3, align 4
  %10 = load i32, i32* %2, align 4
  %11 = icmp sle i32 %9, %10
  br i1 %11, label %12, label %21

12:                                               ; preds = %8
  %13 = bitcast [102 x double]* %4 to i8*
  call void @llvm.memset.p0i8.i64(i8* align 16 %13, i8 0, i64 816, i1 false)
  %14 = getelementptr inbounds [102 x double], [102 x double]* %4, i64 0, i64 0
  store double* %14, double** %5, align 8
  %15 = call i32 (i8*, ...) @__isoc99_scanf(i8* getelementptr inbounds ([4 x i8], [4 x i8]* @.str, i64 0, i64 0), double* %6)
  %16 = load double*, double** %5, align 8
  %17 = load double, double* %6, align 8
  call void @f(double* %16, double %17)
  br label %18

18:                                               ; preds = %12
  %19 = load i32, i32* %3, align 4
  %20 = add nsw i32 %19, 1
  store i32 %20, i32* %3, align 4
  br label %8

21:                                               ; preds = %8
  ret i32 0
}

; Function Attrs: argmemonly nounwind willreturn
declare void @llvm.memset.p0i8.i64(i8* nocapture writeonly, i8, i64, i1 immarg) #3


!llvm.module.flags = !{!0}
!llvm.ident = !{!1}

!0 = !{i32 1, !"wchar_size", i32 4}
!1 = !{!"clang version 10.0.0-4ubuntu1 "}
